target datalayout = "e-m:e-p270:32:32-p271:32:32-p272:64:64-i64:64-i128:128-f80:128-n8:16:32:64-S128"
target triple = "x86_64-pc-linux-gnu"

; Function Attrs: nounwind uwtable
define hidden i32 @dlt_ecu_id_to_gint32(ptr noundef %0) #0 {
  %2 = alloca i32, align 4
  %3 = alloca ptr, align 8
  %4 = alloca i32, align 4
  %5 = alloca i32, align 4
  %6 = alloca i32, align 4
  store ptr %0, ptr %3, align 8
  %7 = load ptr, ptr %3, align 8
  %8 = icmp eq ptr %7, null
  br i1 %8, label %9, label %10

9:                                                ; preds = %1
  store i32 0, ptr %2, align 4
  br label %40

10:                                               ; preds = %1
  store i32 0, ptr %4, align 4
  store i32 32, ptr %6, align 4
  store i32 0, ptr %5, align 4
  br label %11

11:                                               ; preds = %35, %10
  %12 = load i32, ptr %5, align 4
  %13 = load ptr, ptr %3, align 8
  %14 = call i64 @strlen(ptr noundef %13) #3
  %15 = trunc i64 %14 to i32
  %16 = icmp slt i32 %12, %15
  br i1 %16, label %17, label %20

17:                                               ; preds = %11
  %18 = load i32, ptr %5, align 4
  %19 = icmp slt i32 %18, 4
  br label %20

20:                                               ; preds = %17, %11
  %21 = phi i1 [ false, %11 ], [ %19, %17 ]
  br i1 %21, label %22, label %38

22:                                               ; preds = %20
  %23 = load i32, ptr %6, align 4
  %24 = sub i32 %23, 8
  store i32 %24, ptr %6, align 4
  %25 = load ptr, ptr %3, align 8
  %26 = load i32, ptr %5, align 4
  %27 = sext i32 %26 to i64
  %28 = getelementptr i8, ptr %25, i64 %27
  %29 = load i8, ptr %28, align 1
  %30 = sext i8 %29 to i32
  %31 = load i32, ptr %6, align 4
  %32 = shl i32 %30, %31
  %33 = load i32, ptr %4, align 4
  %34 = or i32 %33, %32
  store i32 %34, ptr %4, align 4
  br label %35

35:                                               ; preds = %22
  %36 = load i32, ptr %5, align 4
  %37 = add i32 %36, 1
  store i32 %37, ptr %5, align 4
  br label %11, !llvm.loop !4

38:                                               ; preds = %20
  %39 = load i32, ptr %4, align 4
  store i32 %39, ptr %2, align 4
  br label %40

40:                                               ; preds = %38, %9
  %41 = load i32, ptr %2, align 4
  ret i32 %41
}